; Function Attrs: mustprogress uwtable
define void @_ZN8QuantLib12NthToDefault7results5resetEv(ptr noundef nonnull align 8 dereferenceable(120) %this) unnamed_addr #8 align 2 personality ptr @__gxx_personality_v0 {
entry:
  %ref.tmp2.i = alloca %"class.QuantLib::Date", align 8
  %errorEstimate.i = getelementptr inbounds nuw i8, ptr %this, i64 16
  store double 0x47EFFFFFE0000000, ptr %errorEstimate.i, align 8, !tbaa !152
  %value.i = getelementptr inbounds nuw i8, ptr %this, i64 8
  store double 0x47EFFFFFE0000000, ptr %value.i, align 8, !tbaa !150
  call void @llvm.lifetime.start.p0(i64 8, ptr nonnull %ref.tmp2.i) #25
  call void @_ZN8QuantLib4DateC1Ev(ptr noundef nonnull align 8 dereferenceable(8) %ref.tmp2.i)
  %valuationDate.i = getelementptr inbounds nuw i8, ptr %this, i64 24
  %0 = load i64, ptr %ref.tmp2.i, align 8, !tbaa !37
  store i64 %0, ptr %valuationDate.i, align 8, !tbaa !37
  call void @llvm.lifetime.end.p0(i64 8, ptr nonnull %ref.tmp2.i) #25
  %additionalResults.i = getelementptr inbounds nuw i8, ptr %this, i64 32
  %_M_parent.i.i.i.i.i = getelementptr inbounds i8, ptr %this, i64 48
  %1 = load ptr, ptr %_M_parent.i.i.i.i.i, align 8, !tbaa !13
  invoke void @_ZNSt8_Rb_treeINSt7__cxx1112basic_stringIcSt11char_traitsIcESaIcEEESt4pairIKS5_N5boost3anyEESt10_Select1stISA_ESt4lessIS5_ESaISA_EE8_M_eraseEPSt13_Rb_tree_nodeISA_E(ptr noundef nonnull align 8 dereferenceable(48) %additionalResults.i, ptr noundef %1)
          to label %_ZN8QuantLib10Instrument7results5resetEv.exit unwind label %terminate.lpad.i.i.i

terminate.lpad.i.i.i:                             ; preds = %entry
  %2 = landingpad { ptr, i32 }
          catch ptr null
  %3 = extractvalue { ptr, i32 } %2, 0
  call void @__clang_call_terminate(ptr %3) #26
  unreachable

_ZN8QuantLib10Instrument7results5resetEv.exit:    ; preds = %entry
  %add.ptr.i.i.i = getelementptr inbounds i8, ptr %this, i64 40
  store ptr null, ptr %_M_parent.i.i.i.i.i, align 8, !tbaa !13
  %_M_left.i.i.i.i = getelementptr inbounds i8, ptr %this, i64 56
  store ptr %add.ptr.i.i.i, ptr %_M_left.i.i.i.i, align 8, !tbaa !14
  %_M_right.i.i.i.i = getelementptr inbounds i8, ptr %this, i64 64
  store ptr %add.ptr.i.i.i, ptr %_M_right.i.i.i.i, align 8, !tbaa !15
  %_M_node_count.i.i.i.i = getelementptr inbounds i8, ptr %this, i64 72
  store i64 0, ptr %_M_node_count.i.i.i.i, align 8, !tbaa !16
  %premiumValue = getelementptr inbounds nuw i8, ptr %this, i64 80
  store double 0x47EFFFFFE0000000, ptr %premiumValue, align 8, !tbaa !143
  %protectionValue = getelementptr inbounds nuw i8, ptr %this, i64 88
  store double 0x47EFFFFFE0000000, ptr %protectionValue, align 8, !tbaa !146
  %upfrontPremiumValue = getelementptr inbounds nuw i8, ptr %this, i64 96
  store double 0x47EFFFFFE0000000, ptr %upfrontPremiumValue, align 8, !tbaa !147
  %fairPremium = getelementptr inbounds nuw i8, ptr %this, i64 104
  store double 0x47EFFFFFE0000000, ptr %fairPremium, align 8, !tbaa !148
  %errorEstimate = getelementptr inbounds nuw i8, ptr %this, i64 112
  store double 0x47EFFFFFE0000000, ptr %errorEstimate, align 8, !tbaa !149
  invoke void @_ZNSt8_Rb_treeINSt7__cxx1112basic_stringIcSt11char_traitsIcESaIcEEESt4pairIKS5_N5boost3anyEESt10_Select1stISA_ESt4lessIS5_ESaISA_EE8_M_eraseEPSt13_Rb_tree_nodeISA_E(ptr noundef nonnull align 8 dereferenceable(48) %additionalResults.i, ptr noundef null)
          to label %_ZNSt3mapINSt7__cxx1112basic_stringIcSt11char_traitsIcESaIcEEEN5boost3anyESt4lessIS5_ESaISt4pairIKS5_S7_EEE5clearEv.exit unwind label %terminate.lpad.i.i

terminate.lpad.i.i:                               ; preds = %_ZN8QuantLib10Instrument7results5resetEv.exit
  %4 = landingpad { ptr, i32 }
          catch ptr null
  %5 = extractvalue { ptr, i32 } %4, 0
  call void @__clang_call_terminate(ptr %5) #26
  unreachable

_ZNSt3mapINSt7__cxx1112basic_stringIcSt11char_traitsIcESaIcEEEN5boost3anyESt4lessIS5_ESaISt4pairIKS5_S7_EEE5clearEv.exit: ; preds = %_ZN8QuantLib10Instrument7results5resetEv.exit
  store ptr null, ptr %_M_parent.i.i.i.i.i, align 8, !tbaa !13
  store ptr %add.ptr.i.i.i, ptr %_M_left.i.i.i.i, align 8, !tbaa !14
  store ptr %add.ptr.i.i.i, ptr %_M_right.i.i.i.i, align 8, !tbaa !15
  store i64 0, ptr %_M_node_count.i.i.i.i, align 8, !tbaa !16
  ret void
}